target datalayout = "e-m:e-p270:32:32-p271:32:32-p272:64:64-i64:64-i128:128-f80:128-n8:16:32:64-S128"
target triple = "x86_64-pc-linux-gnu"

%struct.timespec = type { i64, i64 }

; Function Attrs: mustprogress nounwind uwtable
define noundef ptr @_Z28zmq_poll_select_set_timeout_lbmmR8timespec(i64 noundef %0, i1 noundef zeroext %1, i64 noundef %2, i64 noundef %3, ptr noundef nonnull align 8 dereferenceable(16) %4) #0 {
  %6 = alloca i64, align 8
  %7 = alloca i8, align 1
  %8 = alloca i64, align 8
  %9 = alloca i64, align 8
  %10 = alloca ptr, align 8
  %11 = alloca ptr, align 8
  store i64 %0, ptr %6, align 8, !tbaa !13
  %12 = zext i1 %1 to i8
  store i8 %12, ptr %7, align 1, !tbaa !34
  store i64 %2, ptr %8, align 8, !tbaa !13
  store i64 %3, ptr %9, align 8, !tbaa !13
  store ptr %4, ptr %10, align 8, !tbaa !97
  call void @llvm.lifetime.start.p0(i64 8, ptr %11) #20
  %13 = load i8, ptr %7, align 1, !tbaa !34, !range !36, !noundef !37
  %14 = trunc i8 %13 to i1
  br i1 %14, label %15, label %21

15:                                               ; preds = %5
  %16 = load ptr, ptr %10, align 8, !tbaa !97
  %17 = getelementptr inbounds nuw %struct.timespec, ptr %16, i32 0, i32 0
  store i64 0, ptr %17, align 8, !tbaa !99
  %18 = load ptr, ptr %10, align 8, !tbaa !97
  %19 = getelementptr inbounds nuw %struct.timespec, ptr %18, i32 0, i32 1
  store i64 0, ptr %19, align 8, !tbaa !101
  %20 = load ptr, ptr %10, align 8, !tbaa !97
  store ptr %20, ptr %11, align 8, !tbaa !97
  br label %41

21:                                               ; preds = %5
  %22 = load i64, ptr %6, align 8, !tbaa !13
  %23 = icmp slt i64 %22, 0
  br i1 %23, label %24, label %25

24:                                               ; preds = %21
  store ptr null, ptr %11, align 8, !tbaa !97
  br label %40

25:                                               ; preds = %21
  %26 = load i64, ptr %9, align 8, !tbaa !13
  %27 = load i64, ptr %8, align 8, !tbaa !13
  %28 = sub i64 %26, %27
  %29 = udiv i64 %28, 1000
  %30 = load ptr, ptr %10, align 8, !tbaa !97
  %31 = getelementptr inbounds nuw %struct.timespec, ptr %30, i32 0, i32 0
  store i64 %29, ptr %31, align 8, !tbaa !99
  %32 = load i64, ptr %9, align 8, !tbaa !13
  %33 = load i64, ptr %8, align 8, !tbaa !13
  %34 = sub i64 %32, %33
  %35 = urem i64 %34, 1000
  %36 = mul i64 %35, 1000000
  %37 = load ptr, ptr %10, align 8, !tbaa !97
  %38 = getelementptr inbounds nuw %struct.timespec, ptr %37, i32 0, i32 1
  store i64 %36, ptr %38, align 8, !tbaa !101
  %39 = load ptr, ptr %10, align 8, !tbaa !97
  store ptr %39, ptr %11, align 8, !tbaa !97
  br label %40

40:                                               ; preds = %25, %24
  br label %41

41:                                               ; preds = %40, %15
  %42 = load ptr, ptr %11, align 8, !tbaa !97
  call void @llvm.lifetime.end.p0(i64 8, ptr %11) #20
  ret ptr %42
}