; Function Attrs: mustprogress nofree norecurse nosync nounwind willreturn memory(argmem: write) uwtable
define noundef ptr @_Z28zmq_poll_select_set_timeout_lbmmR8timespec(i64 noundef %0, i1 noundef zeroext %1, i64 noundef %2, i64 noundef %3, ptr noundef nonnull writeonly align 8 dereferenceable(16) %4) local_unnamed_addr #0 {
  br i1 %1, label %6, label %7

6:                                                ; preds = %5
  tail call void @llvm.memset.p0.i64(ptr noundef nonnull align 8 dereferenceable(16) %4, i8 0, i64 16, i1 false)
  br label %15

7:                                                ; preds = %5
  %8 = icmp slt i64 %0, 0
  br i1 %8, label %15, label %9

9:                                                ; preds = %7
  %10 = sub i64 %3, %2
  %11 = udiv i64 %10, 1000
  store i64 %11, ptr %4, align 8, !tbaa !63
  %12 = urem i64 %10, 1000
  %13 = mul nuw nsw i64 %12, 1000000
  %14 = getelementptr inbounds nuw i8, ptr %4, i64 8
  store i64 %13, ptr %14, align 8, !tbaa !65
  br label %15

15:                                               ; preds = %7, %9, %6
  %.0 = phi ptr [ %4, %6 ], [ %4, %9 ], [ null, %7 ]
  ret ptr %.0
}